target datalayout = "e-m:e-p270:32:32-p271:32:32-p272:64:64-i64:64-i128:128-f80:128-n8:16:32:64-S128"
target triple = "x86_64-pc-linux-gnu"

%struct.gres_state = type { i32, i32, ptr, ptr, i32 }
%struct.gres_job_state = type { i32, ptr, i16, i16, i64, i64, i64, i64, i64, i16, i16, i64, i32, ptr, ptr, ptr, ptr, i32, i64, i32, ptr, ptr, ptr, ptr, ptr, ptr }

@.str.1 = private unnamed_addr constant [47 x i8] c"%s: gres_per_task and ntasks_per_tres conflict\00", align 1
@__func__.gres_select_util_job_min_tasks = private unnamed_addr constant [31 x i8] c"gres_select_util_job_min_tasks\00", align 1

; Function Attrs: nounwind uwtable
define dso_local i32 @gres_select_util_job_min_tasks(i32 noundef %0, i32 noundef %1, i16 noundef zeroext %2, ptr noundef %3, ptr noundef %4) #0 {
  %6 = alloca i32, align 4
  %7 = alloca i32, align 4
  %8 = alloca i32, align 4
  %9 = alloca i16, align 2
  %10 = alloca ptr, align 8
  %11 = alloca ptr, align 8
  %12 = alloca ptr, align 8
  %13 = alloca ptr, align 8
  %14 = alloca ptr, align 8
  %15 = alloca i32, align 4
  %16 = alloca i32, align 4
  %17 = alloca i32, align 4
  %18 = alloca i32, align 4
  %19 = alloca i64, align 8
  store i32 %0, ptr %7, align 4
  store i32 %1, ptr %8, align 4
  store i16 %2, ptr %9, align 2
  store ptr %3, ptr %10, align 8
  store ptr %4, ptr %11, align 8
  call void @llvm.lifetime.start.p0(i64 8, ptr %12) #3
  call void @llvm.lifetime.start.p0(i64 8, ptr %13) #3
  call void @llvm.lifetime.start.p0(i64 8, ptr %14) #3
  call void @llvm.lifetime.start.p0(i64 4, ptr %15) #3
  call void @llvm.lifetime.start.p0(i64 4, ptr %16) #3
  store i32 0, ptr %16, align 4
  call void @llvm.lifetime.start.p0(i64 4, ptr %17) #3
  store i32 0, ptr %17, align 4
  %20 = load i16, ptr %9, align 2
  %21 = icmp ne i16 %20, 0
  br i1 %21, label %22, label %26

22:                                               ; preds = %5
  %23 = load i16, ptr %9, align 2
  %24 = zext i16 %23 to i32
  %25 = icmp eq i32 %24, 65534
  br i1 %25, label %26, label %27

26:                                               ; preds = %22, %5
  store i32 0, ptr %6, align 4
  store i32 1, ptr %18, align 4
  br label %135

27:                                               ; preds = %22
  %28 = load ptr, ptr %11, align 8
  %29 = icmp ne ptr %28, null
  br i1 %29, label %30, label %34

30:                                               ; preds = %27
  %31 = load ptr, ptr %11, align 8
  %32 = call i32 @slurm_list_count(ptr noundef %31)
  %33 = icmp eq i32 %32, 0
  br i1 %33, label %34, label %35

34:                                               ; preds = %30, %27
  store i32 0, ptr %6, align 4
  store i32 1, ptr %18, align 4
  br label %135

35:                                               ; preds = %30
  %36 = load ptr, ptr %10, align 8
  %37 = icmp ne ptr %36, null
  br i1 %37, label %38, label %47

38:                                               ; preds = %35
  %39 = load ptr, ptr %10, align 8
  %40 = getelementptr inbounds i8, ptr %39, i64 0
  %41 = load i8, ptr %40, align 1
  %42 = sext i8 %41 to i32
  %43 = icmp ne i32 %42, 0
  br i1 %43, label %44, label %47

44:                                               ; preds = %38
  %45 = load ptr, ptr %10, align 8
  %46 = call i32 @gres_build_id(ptr noundef %45)
  store i32 %46, ptr %17, align 4
  br label %47

47:                                               ; preds = %44, %38, %35
  %48 = load ptr, ptr %11, align 8
  %49 = call ptr @slurm_list_iterator_create(ptr noundef %48)
  store ptr %49, ptr %12, align 8
  br label %50

50:                                               ; preds = %131, %129, %47
  %51 = load ptr, ptr %12, align 8
  %52 = call ptr @slurm_list_next(ptr noundef %51)
  store ptr %52, ptr %13, align 8
  %53 = icmp ne ptr %52, null
  br i1 %53, label %54, label %132

54:                                               ; preds = %50
  call void @llvm.lifetime.start.p0(i64 8, ptr %19) #3
  store i64 0, ptr %19, align 8
  %55 = load i32, ptr %17, align 4
  %56 = icmp ne i32 %55, 0
  br i1 %56, label %57, label %64

57:                                               ; preds = %54
  %58 = load i32, ptr %17, align 4
  %59 = load ptr, ptr %13, align 8
  %60 = getelementptr inbounds nuw %struct.gres_state, ptr %59, i32 0, i32 1
  %61 = load i32, ptr %60, align 4
  %62 = icmp ne i32 %58, %61
  br i1 %62, label %63, label %64

63:                                               ; preds = %57
  store i32 2, ptr %18, align 4
  br label %129, !llvm.loop !12

64:                                               ; preds = %57, %54
  %65 = load ptr, ptr %13, align 8
  %66 = getelementptr inbounds nuw %struct.gres_state, ptr %65, i32 0, i32 2
  %67 = load ptr, ptr %66, align 8
  store ptr %67, ptr %14, align 8
  %68 = load ptr, ptr %14, align 8
  %69 = getelementptr inbounds nuw %struct.gres_job_state, ptr %68, i32 0, i32 4
  %70 = load i64, ptr %69, align 8
  %71 = icmp ne i64 %70, 0
  br i1 %71, label %72, label %76

72:                                               ; preds = %64
  %73 = load ptr, ptr %14, align 8
  %74 = getelementptr inbounds nuw %struct.gres_job_state, ptr %73, i32 0, i32 4
  %75 = load i64, ptr %74, align 8
  store i64 %75, ptr %19, align 8
  br label %114

76:                                               ; preds = %64
  %77 = load ptr, ptr %14, align 8
  %78 = getelementptr inbounds nuw %struct.gres_job_state, ptr %77, i32 0, i32 5
  %79 = load i64, ptr %78, align 8
  %80 = icmp ne i64 %79, 0
  br i1 %80, label %81, label %88

81:                                               ; preds = %76
  %82 = load ptr, ptr %14, align 8
  %83 = getelementptr inbounds nuw %struct.gres_job_state, ptr %82, i32 0, i32 5
  %84 = load i64, ptr %83, align 8
  %85 = load i32, ptr %7, align 4
  %86 = zext i32 %85 to i64
  %87 = mul i64 %84, %86
  store i64 %87, ptr %19, align 8
  br label %113

88:                                               ; preds = %76
  %89 = load ptr, ptr %14, align 8
  %90 = getelementptr inbounds nuw %struct.gres_job_state, ptr %89, i32 0, i32 6
  %91 = load i64, ptr %90, align 8
  %92 = icmp ne i64 %91, 0
  br i1 %92, label %93, label %103

93:                                               ; preds = %88
  %94 = load ptr, ptr %14, align 8
  %95 = getelementptr inbounds nuw %struct.gres_job_state, ptr %94, i32 0, i32 6
  %96 = load i64, ptr %95, align 8
  %97 = load i32, ptr %7, align 4
  %98 = zext i32 %97 to i64
  %99 = mul i64 %96, %98
  %100 = load i32, ptr %8, align 4
  %101 = zext i32 %100 to i64
  %102 = mul i64 %99, %101
  store i64 %102, ptr %19, align 8
  br label %112

103:                                              ; preds = %88
  %104 = load ptr, ptr %14, align 8
  %105 = getelementptr inbounds nuw %struct.gres_job_state, ptr %104, i32 0, i32 7
  %106 = load i64, ptr %105, align 8
  %107 = icmp ne i64 %106, 0
  br i1 %107, label %108, label %110

108:                                              ; preds = %103
  %109 = call i32 (ptr, ...) @slurm_error(ptr noundef @.str.1, ptr noundef @__func__.gres_select_util_job_min_tasks)
  br label %111

110:                                              ; preds = %103
  store i32 2, ptr %18, align 4
  br label %129, !llvm.loop !12

111:                                              ; preds = %108
  br label %112

112:                                              ; preds = %111, %93
  br label %113

113:                                              ; preds = %112, %81
  br label %114

114:                                              ; preds = %113, %72
  %115 = load i16, ptr %9, align 2
  %116 = zext i16 %115 to i64
  %117 = load i64, ptr %19, align 8
  %118 = mul i64 %116, %117
  %119 = trunc i64 %118 to i32
  store i32 %119, ptr %15, align 4
  %120 = load i32, ptr %16, align 4
  %121 = load i32, ptr %15, align 4
  %122 = icmp sgt i32 %120, %121
  br i1 %122, label %123, label %125

123:                                              ; preds = %114
  %124 = load i32, ptr %16, align 4
  br label %127

125:                                              ; preds = %114
  %126 = load i32, ptr %15, align 4
  br label %127

127:                                              ; preds = %125, %123
  %128 = phi i32 [ %124, %123 ], [ %126, %125 ]
  store i32 %128, ptr %16, align 4
  store i32 0, ptr %18, align 4
  br label %129

129:                                              ; preds = %127, %110, %63
  call void @llvm.lifetime.end.p0(i64 8, ptr %19) #3
  %130 = load i32, ptr %18, align 4
  switch i32 %130, label %137 [
    i32 0, label %131
    i32 2, label %50
  ]

131:                                              ; preds = %129
  br label %50, !llvm.loop !12

132:                                              ; preds = %50
  %133 = load ptr, ptr %12, align 8
  call void @slurm_list_iterator_destroy(ptr noundef %133)
  %134 = load i32, ptr %16, align 4
  store i32 %134, ptr %6, align 4
  store i32 1, ptr %18, align 4
  br label %135

135:                                              ; preds = %132, %34, %26
  call void @llvm.lifetime.end.p0(i64 4, ptr %17) #3
  call void @llvm.lifetime.end.p0(i64 4, ptr %16) #3
  call void @llvm.lifetime.end.p0(i64 4, ptr %15) #3
  call void @llvm.lifetime.end.p0(i64 8, ptr %14) #3
  call void @llvm.lifetime.end.p0(i64 8, ptr %13) #3
  call void @llvm.lifetime.end.p0(i64 8, ptr %12) #3
  %136 = load i32, ptr %6, align 4
  ret i32 %136

137:                                              ; preds = %129
  unreachable
}