; Function Attrs: nounwind uwtable
define dso_local range(i32 0, -2147483648) i32 @gres_select_util_job_min_tasks(i32 noundef %0, i32 noundef %1, i16 noundef zeroext %2, ptr noundef %3, ptr noundef %4) local_unnamed_addr #0 {
  switch i16 %2, label %6 [
    i16 -2, label %77
    i16 0, label %77
  ]

6:                                                ; preds = %5
  %.not = icmp eq ptr %4, null
  br i1 %.not, label %77, label %7

7:                                                ; preds = %6
  %8 = tail call i32 @slurm_list_count(ptr noundef nonnull %4) #4
  %9 = icmp eq i32 %8, 0
  br i1 %9, label %77, label %10

10:                                               ; preds = %7
  %.not43 = icmp eq ptr %3, null
  br i1 %.not43, label %15, label %11

11:                                               ; preds = %10
  %12 = load i8, ptr %3, align 1
  %.not44 = icmp eq i8 %12, 0
  br i1 %.not44, label %15, label %13

13:                                               ; preds = %11
  %14 = tail call i32 @gres_build_id(ptr noundef nonnull %3) #4
  br label %15

15:                                               ; preds = %13, %11, %10
  %.033 = phi i32 [ %14, %13 ], [ 0, %11 ], [ 0, %10 ]
  %16 = tail call ptr @slurm_list_iterator_create(ptr noundef nonnull %4) #4
  %17 = tail call ptr @slurm_list_next(ptr noundef %16) #4
  %.not4552 = icmp eq ptr %17, null
  br i1 %.not4552, label %._crit_edge, label %.lr.ph

.lr.ph:                                           ; preds = %15
  %.not46 = icmp eq i32 %.033, 0
  %18 = zext i32 %0 to i64
  %19 = zext i32 %1 to i64
  %20 = mul nuw i64 %19, %18
  %21 = zext i16 %2 to i64
  br i1 %.not46, label %.lr.ph.split.us, label %.lr.ph.split

.lr.ph.split.us:                                  ; preds = %.lr.ph, %46
  %22 = phi ptr [ %47, %46 ], [ %17, %.lr.ph ]
  %.03453.us = phi i32 [ %.1.us, %46 ], [ 0, %.lr.ph ]
  %23 = getelementptr inbounds nuw i8, ptr %22, i64 8
  %24 = load ptr, ptr %23, align 8
  %25 = getelementptr inbounds nuw i8, ptr %24, i64 24
  %26 = load i64, ptr %25, align 8
  %.not48.us = icmp eq i64 %26, 0
  br i1 %.not48.us, label %27, label %42

27:                                               ; preds = %.lr.ph.split.us
  %28 = getelementptr inbounds nuw i8, ptr %24, i64 32
  %29 = load i64, ptr %28, align 8
  %.not49.us = icmp eq i64 %29, 0
  br i1 %.not49.us, label %32, label %30

30:                                               ; preds = %27
  %31 = mul i64 %29, %18
  br label %42

32:                                               ; preds = %27
  %33 = getelementptr inbounds nuw i8, ptr %24, i64 40
  %34 = load i64, ptr %33, align 8
  %.not50.us = icmp eq i64 %34, 0
  br i1 %.not50.us, label %37, label %35

35:                                               ; preds = %32
  %36 = mul i64 %20, %34
  br label %42

37:                                               ; preds = %32
  %38 = getelementptr inbounds nuw i8, ptr %24, i64 48
  %39 = load i64, ptr %38, align 8
  %.not51.us = icmp eq i64 %39, 0
  br i1 %.not51.us, label %46, label %40, !llvm.loop !12

40:                                               ; preds = %37
  %41 = tail call i32 (ptr, ...) @slurm_error(ptr noundef nonnull @.str.1, ptr noundef nonnull @__func__.gres_select_util_job_min_tasks) #4
  br label %42

42:                                               ; preds = %40, %35, %30, %.lr.ph.split.us
  %.0.us = phi i64 [ %31, %30 ], [ %36, %35 ], [ 0, %40 ], [ %26, %.lr.ph.split.us ]
  %43 = mul i64 %.0.us, %21
  %44 = trunc i64 %43 to i32
  %45 = tail call i32 @llvm.smax.i32(i32 %.03453.us, i32 %44)
  br label %46

46:                                               ; preds = %42, %37
  %.1.us = phi i32 [ %45, %42 ], [ %.03453.us, %37 ]
  %47 = tail call ptr @slurm_list_next(ptr noundef %16) #4
  %.not45.us = icmp eq ptr %47, null
  br i1 %.not45.us, label %._crit_edge, label %.lr.ph.split.us

.lr.ph.split:                                     ; preds = %.lr.ph, %75
  %48 = phi ptr [ %76, %75 ], [ %17, %.lr.ph ]
  %.03453 = phi i32 [ %.1, %75 ], [ 0, %.lr.ph ]
  %49 = getelementptr inbounds nuw i8, ptr %48, i64 4
  %50 = load i32, ptr %49, align 4
  %.not47 = icmp eq i32 %.033, %50
  br i1 %.not47, label %51, label %75, !llvm.loop !12

51:                                               ; preds = %.lr.ph.split
  %52 = getelementptr inbounds nuw i8, ptr %48, i64 8
  %53 = load ptr, ptr %52, align 8
  %54 = getelementptr inbounds nuw i8, ptr %53, i64 24
  %55 = load i64, ptr %54, align 8
  %.not48 = icmp eq i64 %55, 0
  br i1 %.not48, label %56, label %71

56:                                               ; preds = %51
  %57 = getelementptr inbounds nuw i8, ptr %53, i64 32
  %58 = load i64, ptr %57, align 8
  %.not49 = icmp eq i64 %58, 0
  br i1 %.not49, label %61, label %59

59:                                               ; preds = %56
  %60 = mul i64 %58, %18
  br label %71

61:                                               ; preds = %56
  %62 = getelementptr inbounds nuw i8, ptr %53, i64 40
  %63 = load i64, ptr %62, align 8
  %.not50 = icmp eq i64 %63, 0
  br i1 %.not50, label %66, label %64

64:                                               ; preds = %61
  %65 = mul i64 %20, %63
  br label %71

66:                                               ; preds = %61
  %67 = getelementptr inbounds nuw i8, ptr %53, i64 48
  %68 = load i64, ptr %67, align 8
  %.not51 = icmp eq i64 %68, 0
  br i1 %.not51, label %75, label %69, !llvm.loop !12

69:                                               ; preds = %66
  %70 = tail call i32 (ptr, ...) @slurm_error(ptr noundef nonnull @.str.1, ptr noundef nonnull @__func__.gres_select_util_job_min_tasks) #4
  br label %71

71:                                               ; preds = %51, %59, %69, %64
  %.0 = phi i64 [ %60, %59 ], [ %65, %64 ], [ 0, %69 ], [ %55, %51 ]
  %72 = mul i64 %.0, %21
  %73 = trunc i64 %72 to i32
  %74 = tail call i32 @llvm.smax.i32(i32 %.03453, i32 %73)
  br label %75

75:                                               ; preds = %66, %.lr.ph.split, %71
  %.1 = phi i32 [ %74, %71 ], [ %.03453, %.lr.ph.split ], [ %.03453, %66 ]
  %76 = tail call ptr @slurm_list_next(ptr noundef %16) #4
  %.not45 = icmp eq ptr %76, null
  br i1 %.not45, label %._crit_edge, label %.lr.ph.split

._crit_edge:                                      ; preds = %75, %46, %15
  %.034.lcssa = phi i32 [ 0, %15 ], [ %.1.us, %46 ], [ %.1, %75 ]
  tail call void @slurm_list_iterator_destroy(ptr noundef %16) #4
  br label %77

77:                                               ; preds = %6, %7, %5, %5, %._crit_edge
  %.035 = phi i32 [ %.034.lcssa, %._crit_edge ], [ 0, %5 ], [ 0, %5 ], [ 0, %7 ], [ 0, %6 ]
  ret i32 %.035
}